target datalayout = "e-m:e-p270:32:32-p271:32:32-p272:64:64-i64:64-i128:128-f80:128-n8:16:32:64-S128"
target triple = "x86_64-pc-linux-gnu"

%struct.SurfaceDataRasInfo = type { %struct.SurfaceDataBounds, ptr, i32, i32, i32, i32, ptr, ptr, ptr, ptr, ptr, ptr, i32, %union.anon.0 }
%struct.SurfaceDataBounds = type { i32, i32, i32, i32 }
%union.anon.0 = type { ptr, [56 x i8] }
%struct._CompositeInfo = type { i32, %union.anon.1, i32 }
%union.anon.1 = type { float }

; Function Attrs: nounwind uwtable
define hidden void @IntArgbToThreeByteBgrXorBlit(ptr noundef %0, ptr noundef %1, i32 noundef %2, i32 noundef %3, ptr noundef %4, ptr noundef %5, ptr noundef %6, ptr noundef %7) #1 {
  %9 = alloca ptr, align 8
  %10 = alloca ptr, align 8
  %11 = alloca i32, align 4
  %12 = alloca i32, align 4
  %13 = alloca ptr, align 8
  %14 = alloca ptr, align 8
  %15 = alloca ptr, align 8
  %16 = alloca ptr, align 8
  %17 = alloca i32, align 4
  %18 = alloca i32, align 4
  %19 = alloca i8, align 1
  %20 = alloca i8, align 1
  %21 = alloca i8, align 1
  %22 = alloca i8, align 1
  %23 = alloca i8, align 1
  %24 = alloca i8, align 1
  %25 = alloca ptr, align 8
  %26 = alloca ptr, align 8
  %27 = alloca i32, align 4
  %28 = alloca i32, align 4
  %29 = alloca i32, align 4
  %30 = alloca i32, align 4
  %31 = alloca i8, align 1
  %32 = alloca i8, align 1
  %33 = alloca i8, align 1
  store ptr %0, ptr %9, align 8
  store ptr %1, ptr %10, align 8
  store i32 %2, ptr %11, align 4
  store i32 %3, ptr %12, align 4
  store ptr %4, ptr %13, align 8
  store ptr %5, ptr %14, align 8
  store ptr %6, ptr %15, align 8
  store ptr %7, ptr %16, align 8
  %34 = load ptr, ptr %16, align 8
  %35 = getelementptr inbounds %struct._CompositeInfo, ptr %34, i32 0, i32 1
  %36 = load i32, ptr %35, align 4
  store i32 %36, ptr %17, align 4
  %37 = load ptr, ptr %16, align 8
  %38 = getelementptr inbounds %struct._CompositeInfo, ptr %37, i32 0, i32 2
  %39 = load i32, ptr %38, align 4
  store i32 %39, ptr %18, align 4
  br label %40

40:                                               ; preds = %8
  %41 = load i32, ptr %17, align 4
  %42 = trunc i32 %41 to i8
  store i8 %42, ptr %19, align 1
  %43 = load i32, ptr %17, align 4
  %44 = ashr i32 %43, 8
  %45 = trunc i32 %44 to i8
  store i8 %45, ptr %20, align 1
  %46 = load i32, ptr %17, align 4
  %47 = ashr i32 %46, 16
  %48 = trunc i32 %47 to i8
  store i8 %48, ptr %21, align 1
  br label %49

49:                                               ; preds = %40
  br label %50

50:                                               ; preds = %49
  %51 = load i32, ptr %18, align 4
  %52 = trunc i32 %51 to i8
  store i8 %52, ptr %22, align 1
  %53 = load i32, ptr %18, align 4
  %54 = lshr i32 %53, 8
  %55 = trunc i32 %54 to i8
  store i8 %55, ptr %23, align 1
  %56 = load i32, ptr %18, align 4
  %57 = lshr i32 %56, 16
  %58 = trunc i32 %57 to i8
  store i8 %58, ptr %24, align 1
  br label %59

59:                                               ; preds = %50
  br label %60

60:                                               ; preds = %59
  %61 = load ptr, ptr %9, align 8
  store ptr %61, ptr %25, align 8
  %62 = load ptr, ptr %10, align 8
  store ptr %62, ptr %26, align 8
  %63 = load ptr, ptr %13, align 8
  %64 = getelementptr inbounds %struct.SurfaceDataRasInfo, ptr %63, i32 0, i32 4
  %65 = load i32, ptr %64, align 8
  store i32 %65, ptr %27, align 4
  %66 = load ptr, ptr %14, align 8
  %67 = getelementptr inbounds %struct.SurfaceDataRasInfo, ptr %66, i32 0, i32 4
  %68 = load i32, ptr %67, align 8
  store i32 %68, ptr %28, align 4
  %69 = load i32, ptr %11, align 4
  %70 = mul i32 %69, 4
  %71 = load i32, ptr %27, align 4
  %72 = sub i32 %71, %70
  store i32 %72, ptr %27, align 4
  %73 = load i32, ptr %11, align 4
  %74 = mul i32 %73, 3
  %75 = load i32, ptr %28, align 4
  %76 = sub i32 %75, %74
  store i32 %76, ptr %28, align 4
  br label %77

77:                                               ; preds = %172, %60
  %78 = load i32, ptr %11, align 4
  store i32 %78, ptr %29, align 4
  br label %79

79:                                               ; preds = %155, %77
  br label %80

80:                                               ; preds = %79
  %81 = load ptr, ptr %25, align 8
  %82 = getelementptr inbounds i32, ptr %81, i64 0
  %83 = load i32, ptr %82, align 4
  store i32 %83, ptr %30, align 4
  %84 = load i32, ptr %30, align 4
  %85 = icmp sge i32 %84, 0
  br i1 %85, label %86, label %87

86:                                               ; preds = %80
  br label %146

87:                                               ; preds = %80
  %88 = load i32, ptr %30, align 4
  store i32 %88, ptr %30, align 4
  br label %89

89:                                               ; preds = %87
  %90 = load i32, ptr %30, align 4
  %91 = trunc i32 %90 to i8
  store i8 %91, ptr %31, align 1
  %92 = load i32, ptr %30, align 4
  %93 = ashr i32 %92, 8
  %94 = trunc i32 %93 to i8
  store i8 %94, ptr %32, align 1
  %95 = load i32, ptr %30, align 4
  %96 = ashr i32 %95, 16
  %97 = trunc i32 %96 to i8
  store i8 %97, ptr %33, align 1
  br label %98

98:                                               ; preds = %89
  br label %99

99:                                               ; preds = %98
  %100 = load i8, ptr %31, align 1
  %101 = zext i8 %100 to i32
  %102 = load i8, ptr %19, align 1
  %103 = zext i8 %102 to i32
  %104 = xor i32 %101, %103
  %105 = load i8, ptr %22, align 1
  %106 = zext i8 %105 to i32
  %107 = xor i32 %106, -1
  %108 = and i32 %104, %107
  %109 = load ptr, ptr %26, align 8
  %110 = getelementptr inbounds i8, ptr %109, i64 0
  %111 = load i8, ptr %110, align 1
  %112 = zext i8 %111 to i32
  %113 = xor i32 %112, %108
  %114 = trunc i32 %113 to i8
  store i8 %114, ptr %110, align 1
  %115 = load i8, ptr %32, align 1
  %116 = zext i8 %115 to i32
  %117 = load i8, ptr %20, align 1
  %118 = zext i8 %117 to i32
  %119 = xor i32 %116, %118
  %120 = load i8, ptr %23, align 1
  %121 = zext i8 %120 to i32
  %122 = xor i32 %121, -1
  %123 = and i32 %119, %122
  %124 = load ptr, ptr %26, align 8
  %125 = getelementptr inbounds i8, ptr %124, i64 1
  %126 = load i8, ptr %125, align 1
  %127 = zext i8 %126 to i32
  %128 = xor i32 %127, %123
  %129 = trunc i32 %128 to i8
  store i8 %129, ptr %125, align 1
  %130 = load i8, ptr %33, align 1
  %131 = zext i8 %130 to i32
  %132 = load i8, ptr %21, align 1
  %133 = zext i8 %132 to i32
  %134 = xor i32 %131, %133
  %135 = load i8, ptr %24, align 1
  %136 = zext i8 %135 to i32
  %137 = xor i32 %136, -1
  %138 = and i32 %134, %137
  %139 = load ptr, ptr %26, align 8
  %140 = getelementptr inbounds i8, ptr %139, i64 2
  %141 = load i8, ptr %140, align 1
  %142 = zext i8 %141 to i32
  %143 = xor i32 %142, %138
  %144 = trunc i32 %143 to i8
  store i8 %144, ptr %140, align 1
  br label %145

145:                                              ; preds = %99
  br label %146

146:                                              ; preds = %145, %86
  %147 = load ptr, ptr %25, align 8
  %148 = ptrtoint ptr %147 to i64
  %149 = add nsw i64 %148, 4
  %150 = inttoptr i64 %149 to ptr
  store ptr %150, ptr %25, align 8
  %151 = load ptr, ptr %26, align 8
  %152 = ptrtoint ptr %151 to i64
  %153 = add nsw i64 %152, 3
  %154 = inttoptr i64 %153 to ptr
  store ptr %154, ptr %26, align 8
  br label %155

155:                                              ; preds = %146
  %156 = load i32, ptr %29, align 4
  %157 = add i32 %156, -1
  store i32 %157, ptr %29, align 4
  %158 = icmp ugt i32 %157, 0
  br i1 %158, label %79, label %159, !llvm.loop !35

159:                                              ; preds = %155
  %160 = load ptr, ptr %25, align 8
  %161 = ptrtoint ptr %160 to i64
  %162 = load i32, ptr %27, align 4
  %163 = sext i32 %162 to i64
  %164 = add nsw i64 %161, %163
  %165 = inttoptr i64 %164 to ptr
  store ptr %165, ptr %25, align 8
  %166 = load ptr, ptr %26, align 8
  %167 = ptrtoint ptr %166 to i64
  %168 = load i32, ptr %28, align 4
  %169 = sext i32 %168 to i64
  %170 = add nsw i64 %167, %169
  %171 = inttoptr i64 %170 to ptr
  store ptr %171, ptr %26, align 8
  br label %172

172:                                              ; preds = %159
  %173 = load i32, ptr %12, align 4
  %174 = add i32 %173, -1
  store i32 %174, ptr %12, align 4
  %175 = icmp ugt i32 %174, 0
  br i1 %175, label %77, label %176, !llvm.loop !36

176:                                              ; preds = %172
  br label %177

177:                                              ; preds = %176
  ret void
}