; Function Attrs: nofree norecurse nosync nounwind memory(readwrite, inaccessiblemem: none) uwtable
define hidden void @IntArgbToThreeByteBgrXorBlit(ptr noundef %0, ptr noundef %1, i32 noundef %2, i32 noundef %3, ptr nocapture noundef readonly %4, ptr nocapture noundef readonly %5, ptr nocapture readnone %6, ptr nocapture noundef readonly %7) #1 {
  %9 = getelementptr inbounds i8, ptr %7, i64 4
  %10 = load i32, ptr %9, align 4
  %11 = getelementptr inbounds i8, ptr %7, i64 8
  %12 = load i32, ptr %11, align 4
  %13 = getelementptr inbounds i8, ptr %4, i64 32
  %14 = load i32, ptr %13, align 8
  %15 = getelementptr inbounds i8, ptr %5, i64 32
  %16 = load i32, ptr %15, align 8
  %17 = shl i32 %2, 2
  %18 = sub i32 %14, %17
  %.neg = mul i32 %2, -3
  %19 = add i32 %16, %.neg
  %20 = sext i32 %18 to i64
  %21 = xor i32 %12, -1
  %22 = sext i32 %19 to i64
  br label %23

23:                                               ; preds = %51, %8
  %.043 = phi ptr [ %1, %8 ], [ %55, %51 ]
  %.042 = phi ptr [ %0, %8 ], [ %53, %51 ]
  %.0 = phi i32 [ %3, %8 ], [ %56, %51 ]
  br label %24

24:                                               ; preds = %43, %23
  %.045 = phi i32 [ %2, %23 ], [ %50, %43 ]
  %.144 = phi ptr [ %.043, %23 ], [ %49, %43 ]
  %.1 = phi ptr [ %.042, %23 ], [ %46, %43 ]
  %25 = load i32, ptr %.1, align 4
  %26 = icmp sgt i32 %25, -1
  br i1 %26, label %43, label %27

27:                                               ; preds = %24
  %28 = xor i32 %25, %10
  %29 = and i32 %28, %21
  %30 = load i8, ptr %.144, align 1
  %31 = trunc i32 %29 to i8
  %32 = xor i8 %30, %31
  store i8 %32, ptr %.144, align 1
  %33 = lshr i32 %29, 8
  %34 = getelementptr inbounds i8, ptr %.144, i64 1
  %35 = load i8, ptr %34, align 1
  %36 = trunc i32 %33 to i8
  %37 = xor i8 %35, %36
  store i8 %37, ptr %34, align 1
  %38 = lshr i32 %29, 16
  %39 = getelementptr inbounds i8, ptr %.144, i64 2
  %40 = load i8, ptr %39, align 1
  %41 = trunc i32 %38 to i8
  %42 = xor i8 %40, %41
  store i8 %42, ptr %39, align 1
  br label %43

43:                                               ; preds = %24, %27
  %44 = ptrtoint ptr %.1 to i64
  %45 = add nsw i64 %44, 4
  %46 = inttoptr i64 %45 to ptr
  %47 = ptrtoint ptr %.144 to i64
  %48 = add nsw i64 %47, 3
  %49 = inttoptr i64 %48 to ptr
  %50 = add i32 %.045, -1
  %.not = icmp eq i32 %50, 0
  br i1 %.not, label %51, label %24, !llvm.loop !35

51:                                               ; preds = %43
  %52 = add nsw i64 %45, %20
  %53 = inttoptr i64 %52 to ptr
  %54 = add nsw i64 %48, %22
  %55 = inttoptr i64 %54 to ptr
  %56 = add i32 %.0, -1
  %.not49 = icmp eq i32 %56, 0
  br i1 %.not49, label %57, label %23, !llvm.loop !36

57:                                               ; preds = %51
  ret void
}